; Function Attrs: nounwind uwtable
define void @Abc_FrameSetJsonObjs(ptr noundef %0) local_unnamed_addr #1 {
  %2 = load ptr, ptr @s_GlobalFrame, align 8, !tbaa !3
  %3 = getelementptr inbounds nuw i8, ptr %2, i64 560
  %4 = load ptr, ptr %3, align 8, !tbaa !62
  %5 = icmp eq ptr %4, null
  br i1 %5, label %Vec_WecFreeP.exit, label %6

6:                                                ; preds = %1
  %7 = load i32, ptr %4, align 8, !tbaa !63
  %8 = icmp sgt i32 %7, 0
  %9 = getelementptr inbounds nuw i8, ptr %4, i64 8
  %.pre.i.i.i = load ptr, ptr %9, align 8, !tbaa !65
  br i1 %8, label %.lr.ph.i.i.i, label %._crit_edge.i.i.i

.lr.ph.i.i.i:                                     ; preds = %6, %17
  %10 = phi i32 [ %18, %17 ], [ %7, %6 ]
  %11 = phi ptr [ %19, %17 ], [ %.pre.i.i.i, %6 ]
  %indvars.iv.i.i.i = phi i64 [ %indvars.iv.next.i.i.i, %17 ], [ 0, %6 ]
  %12 = getelementptr inbounds nuw %struct.Vec_Int_t_, ptr %11, i64 %indvars.iv.i.i.i, i32 2
  %13 = load ptr, ptr %12, align 8, !tbaa !59
  %.not15.i.i.i = icmp eq ptr %13, null
  br i1 %.not15.i.i.i, label %17, label %14

14:                                               ; preds = %.lr.ph.i.i.i
  tail call void @free(ptr noundef nonnull %13) #20
  %15 = load ptr, ptr %9, align 8, !tbaa !65
  %16 = getelementptr inbounds nuw %struct.Vec_Int_t_, ptr %15, i64 %indvars.iv.i.i.i, i32 2
  store ptr null, ptr %16, align 8, !tbaa !59
  %.pre18.i.i.i = load i32, ptr %4, align 8, !tbaa !63
  br label %17

17:                                               ; preds = %14, %.lr.ph.i.i.i
  %18 = phi i32 [ %.pre18.i.i.i, %14 ], [ %10, %.lr.ph.i.i.i ]
  %19 = phi ptr [ %15, %14 ], [ %11, %.lr.ph.i.i.i ]
  %indvars.iv.next.i.i.i = add nuw nsw i64 %indvars.iv.i.i.i, 1
  %20 = sext i32 %18 to i64
  %21 = icmp slt i64 %indvars.iv.next.i.i.i, %20
  br i1 %21, label %.lr.ph.i.i.i, label %._crit_edge.thread.i.i.i, !llvm.loop !66

._crit_edge.i.i.i:                                ; preds = %6
  %.not.i.i.i = icmp eq ptr %.pre.i.i.i, null
  br i1 %.not.i.i.i, label %Vec_WecFree.exit.i, label %._crit_edge.thread.i.i.i

._crit_edge.thread.i.i.i:                         ; preds = %17, %._crit_edge.i.i.i
  %22 = phi ptr [ %.pre.i.i.i, %._crit_edge.i.i.i ], [ %19, %17 ]
  tail call void @free(ptr noundef nonnull %22) #20
  %.pre.pre = load ptr, ptr @s_GlobalFrame, align 8, !tbaa !3
  br label %Vec_WecFree.exit.i

Vec_WecFree.exit.i:                               ; preds = %._crit_edge.thread.i.i.i, %._crit_edge.i.i.i
  %.pre = phi ptr [ %.pre.pre, %._crit_edge.thread.i.i.i ], [ %2, %._crit_edge.i.i.i ]
  tail call void @free(ptr noundef nonnull %4) #20
  store ptr null, ptr %3, align 8, !tbaa !62
  br label %Vec_WecFreeP.exit

Vec_WecFreeP.exit:                                ; preds = %1, %Vec_WecFree.exit.i
  %23 = phi ptr [ %2, %1 ], [ %.pre, %Vec_WecFree.exit.i ]
  %24 = getelementptr inbounds nuw i8, ptr %23, i64 560
  store ptr %0, ptr %24, align 8, !tbaa !47
  ret void
}